; ModuleID = '3/1494.c'
source_filename = "3/1494.c"
target datalayout = "e-m:e-p270:32:32-p271:32:32-p272:64:64-i64:64-f80:128-n8:16:32:64-S128"
target triple = "x86_64-pc-linux-gnu"

@.str = private unnamed_addr constant [5 x i8] c"%d%d\00", align 1
@.str.1 = private unnamed_addr constant [4 x i8] c"%d \00", align 1
@.str.2 = private unnamed_addr constant [4 x i8] c"yes\00", align 1
@.str.3 = private unnamed_addr constant [3 x i8] c"no\00", align 1

; Function Attrs: noinline nounwind uwtable
define dso_local i32 @main() #0 {
  %1 = alloca i32, align 4
  %2 = alloca i32, align 4
  %3 = alloca i32, align 4
  %4 = alloca i32, align 4
  %5 = alloca i32, align 4
  %6 = alloca i32, align 4
  %7 = alloca i8*, align 8
  %8 = alloca i64, align 8
  %9 = alloca i32, align 4
  %10 = alloca i32, align 4
  %11 = alloca i32, align 4
  store i32 0, i32* %1, align 4
  store i32 0, i32* %5, align 4
  store i32 0, i32* %6, align 4
  %12 = call i32 (i8*, ...) @__isoc99_scanf(i8* getelementptr inbounds ([5 x i8], [5 x i8]* @.str, i64 0, i64 0), i32* %2, i32* %3)
  %13 = load i32, i32* %2, align 4
  %14 = zext i32 %13 to i64
  %15 = call i8* @llvm.stacksave()
  store i8* %15, i8** %7, align 8
  %16 = alloca i32, i64 %14, align 16
  store i64 %14, i64* %8, align 8
  store i32 0, i32* %9, align 4
  br label %17

17:                                               ; preds = %26, %0
  %18 = load i32, i32* %9, align 4
  %19 = load i32, i32* %2, align 4
  %20 = icmp slt i32 %18, %19
  br i1 %20, label %21, label %29

21:                                               ; preds = %17
  %22 = load i32, i32* %9, align 4
  %23 = sext i32 %22 to i64
  %24 = getelementptr inbounds i32, i32* %16, i64 %23
  %25 = call i32 (i8*, ...) @__isoc99_scanf(i8* getelementptr inbounds ([4 x i8], [4 x i8]* @.str.1, i64 0, i64 0), i32* %24)
  br label %26

26:                                               ; preds = %21
  %27 = load i32, i32* %9, align 4
  %28 = add nsw i32 %27, 1
  store i32 %28, i32* %9, align 4
  br label %17

29:                                               ; preds = %17
  store i32 0, i32* %10, align 4
  br label %30

30:                                               ; preds = %61, %29
  %31 = load i32, i32* %10, align 4
  %32 = load i32, i32* %2, align 4
  %33 = sub nsw i32 %32, 1
  %34 = icmp slt i32 %31, %33
  br i1 %34, label %35, label %64

35:                                               ; preds = %30
  %36 = load i32, i32* %10, align 4
  %37 = add nsw i32 %36, 1
  store i32 %37, i32* %11, align 4
  br label %38

38:                                               ; preds = %57, %35
  %39 = load i32, i32* %11, align 4
  %40 = load i32, i32* %2, align 4
  %41 = icmp slt i32 %39, %40
  br i1 %41, label %42, label %60

42:                                               ; preds = %38
  %43 = load i32, i32* %10, align 4
  %44 = sext i32 %43 to i64
  %45 = getelementptr inbounds i32, i32* %16, i64 %44
  %46 = load i32, i32* %45, align 4
  %47 = load i32, i32* %11, align 4
  %48 = sext i32 %47 to i64
  %49 = getelementptr inbounds i32, i32* %16, i64 %48
  %50 = load i32, i32* %49, align 4
  %51 = add nsw i32 %46, %50
  store i32 %51, i32* %4, align 4
  %52 = load i32, i32* %4, align 4
  %53 = load i32, i32* %3, align 4
  %54 = icmp eq i32 %52, %53
  br i1 %54, label %55, label %56

55:                                               ; preds = %42
  store i32 1, i32* %5, align 4
  br label %56

56:                                               ; preds = %55, %42
  br label %57

57:                                               ; preds = %56
  %58 = load i32, i32* %11, align 4
  %59 = add nsw i32 %58, 1
  store i32 %59, i32* %11, align 4
  br label %38

60:                                               ; preds = %38
  br label %61

61:                                               ; preds = %60
  %62 = load i32, i32* %10, align 4
  %63 = add nsw i32 %62, 1
  store i32 %63, i32* %10, align 4
  br label %30

64:                                               ; preds = %30
  %65 = load i32, i32* %5, align 4
  %66 = icmp eq i32 %65, 1
  br i1 %66, label %67, label %72

67:                                               ; preds = %64
  %68 = load i32, i32* %6, align 4
  %69 = icmp eq i32 %68, 0
  br i1 %69, label %70, label %72

70:                                               ; preds = %67
  %71 = call i32 (i8*, ...) @printf(i8* getelementptr inbounds ([4 x i8], [4 x i8]* @.str.2, i64 0, i64 0))
  br label %74

72:                                               ; preds = %67, %64
  %73 = call i32 (i8*, ...) @printf(i8* getelementptr inbounds ([3 x i8], [3 x i8]* @.str.3, i64 0, i64 0))
  br label %74

74:                                               ; preds = %72, %70
  store i32 0, i32* %1, align 4
  %75 = load i8*, i8** %7, align 8
  call void @llvm.stackrestore(i8* %75)
  %76 = load i32, i32* %1, align 4
  ret i32 %76
}

declare dso_local i32 @__isoc99_scanf(i8*, ...) #1

; Function Attrs: nounwind
declare i8* @llvm.stacksave() #2

declare dso_local i32 @printf(i8*, ...) #1

; Function Attrs: nounwind
declare void @llvm.stackrestore(i8*) #2


!llvm.module.flags = !{!0}
!llvm.ident = !{!1}

!0 = !{i32 1, !"wchar_size", i32 4}
!1 = !{!"clang version 10.0.0-4ubuntu1 "}
